; Function Attrs: mustprogress nounwind uwtable
define hidden void @_ZN7datalog11check_tableD2Ev(ptr nocapture noundef nonnull align 8 dereferenceable(56) %this) unnamed_addr #6 align 2 personality ptr @__gxx_personality_v0 {
entry:
  store ptr getelementptr inbounds ({ [29 x ptr] }, ptr @_ZTVN7datalog11check_tableE, i64 0, i32 0, i64 2), ptr %this, align 8
  %m_tocheck = getelementptr inbounds i8, ptr %this, i64 48
  %0 = load ptr, ptr %m_tocheck, align 8
  %vtable = load ptr, ptr %0, align 8
  %vfn = getelementptr inbounds i8, ptr %vtable, i64 16
  %1 = load ptr, ptr %vfn, align 8
  invoke void %1(ptr noundef nonnull align 8 dereferenceable(36) %0)
          to label %invoke.cont unwind label %terminate.lpad

invoke.cont:                                      ; preds = %entry
  %m_checker = getelementptr inbounds i8, ptr %this, i64 40
  %2 = load ptr, ptr %m_checker, align 8
  %vtable2 = load ptr, ptr %2, align 8
  %vfn3 = getelementptr inbounds i8, ptr %vtable2, i64 16
  %3 = load ptr, ptr %vfn3, align 8
  invoke void %3(ptr noundef nonnull align 8 dereferenceable(36) %2)
          to label %invoke.cont4 unwind label %terminate.lpad

invoke.cont4:                                     ; preds = %invoke.cont
  store ptr getelementptr inbounds ({ [18 x ptr] }, ptr @_ZTVN7datalog17tr_infrastructureINS_12table_traitsEE13base_ancestorE, i64 0, i32 0, i64 2), ptr %this, align 8
  %m_signature.i.i = getelementptr inbounds i8, ptr %this, i64 16
  %4 = load ptr, ptr %m_signature.i.i, align 8
  %tobool.not.i.i.i.i.i.i.i = icmp eq ptr %4, null
  br i1 %tobool.not.i.i.i.i.i.i.i, label %_ZN7datalog10table_baseD2Ev.exit, label %if.then.i.i.i.i.i.i.i

if.then.i.i.i.i.i.i.i:                            ; preds = %invoke.cont4
  %add.ptr.i.i.i.i.i.i.i.i = getelementptr inbounds i8, ptr %4, i64 -8
  invoke void @_ZN6memory10deallocateEPv(ptr noundef nonnull %add.ptr.i.i.i.i.i.i.i.i)
          to label %_ZN7datalog10table_baseD2Ev.exit unwind label %terminate.lpad.i.i.i.i.i.i

terminate.lpad.i.i.i.i.i.i:                       ; preds = %if.then.i.i.i.i.i.i.i
  %5 = landingpad { ptr, i32 }
          catch ptr null
  %6 = extractvalue { ptr, i32 } %5, 0
  tail call void @__clang_call_terminate(ptr %6) #15
  unreachable

_ZN7datalog10table_baseD2Ev.exit:                 ; preds = %invoke.cont4, %if.then.i.i.i.i.i.i.i
  ret void

terminate.lpad:                                   ; preds = %invoke.cont, %entry
  %7 = landingpad { ptr, i32 }
          catch ptr null
  %8 = extractvalue { ptr, i32 } %7, 0
  tail call void @__clang_call_terminate(ptr %8) #15
  unreachable
}